; Function Attrs: nounwind uwtable
define dso_local void @signalFlushedDb(i32 noundef %0, i32 noundef %1) local_unnamed_addr #0 {
  %3 = icmp eq i32 %0, -1
  %4 = load i32, ptr getelementptr inbounds nuw (i8, ptr @server, i64 6376), align 8
  %5 = add nsw i32 %4, -1
  %.010 = select i1 %3, i32 0, i32 %0
  %.09 = select i1 %3, i32 %5, i32 %0
  %.not12 = icmp sgt i32 %.010, %.09
  br i1 %.not12, label %._crit_edge, label %.lr.ph.preheader

.lr.ph.preheader:                                 ; preds = %2
  %6 = sext i32 %.010 to i64
  %7 = add i32 %.09, 1
  br label %.lr.ph

._crit_edge:                                      ; preds = %.lr.ph, %2
  tail call void @trackingInvalidateKeysOnFlush(i32 noundef %1) #20
  ret void

.lr.ph:                                           ; preds = %.lr.ph.preheader, %.lr.ph
  %indvars.iv = phi i64 [ %6, %.lr.ph.preheader ], [ %indvars.iv.next, %.lr.ph ]
  %8 = load ptr, ptr getelementptr inbounds nuw (i8, ptr @server, i64 64), align 8, !tbaa !94
  %9 = getelementptr inbounds %struct.redisDb, ptr %8, i64 %indvars.iv
  tail call void @scanDatabaseForDeletedKeys(ptr noundef %9, ptr noundef null)
  %10 = load ptr, ptr getelementptr inbounds nuw (i8, ptr @server, i64 64), align 8, !tbaa !94
  %11 = getelementptr inbounds %struct.redisDb, ptr %10, i64 %indvars.iv
  tail call void @touchAllWatchedKeysInDb(ptr noundef %11, ptr noundef null) #20
  %indvars.iv.next = add nsw i64 %indvars.iv, 1
  %lftr.wideiv = trunc i64 %indvars.iv.next to i32
  %exitcond.not = icmp eq i32 %7, %lftr.wideiv
  br i1 %exitcond.not, label %._crit_edge, label %.lr.ph, !llvm.loop !95
}